; Function Attrs: nounwind uwtable
define dso_local void @makePath(i32 noundef %0, ptr noundef readonly captures(none) %1) local_unnamed_addr #0 {
  switch i32 %0, label %.lr.ph [
    i32 1, label %3
    i32 0, label %.loopexit
  ]

3:                                                ; preds = %2
  tail call void %1(i32 noundef 1, i32 noundef 0) #15
  br label %.loopexit

.lr.ph:                                           ; preds = %2, %.lr.ph
  %.09 = phi i32 [ %5, %.lr.ph ], [ 2, %2 ]
  %4 = add i32 %.09, -1
  tail call void %1(i32 noundef %4, i32 noundef %.09) #15
  %5 = add i32 %.09, 1
  %.not = icmp ugt i32 %5, %0
  br i1 %.not, label %.loopexit, label %.lr.ph, !llvm.loop !4

.loopexit:                                        ; preds = %.lr.ph, %2, %3
  ret void
}